target datalayout = "e-m:e-p270:32:32-p271:32:32-p272:64:64-i64:64-i128:128-f80:128-n8:16:32:64-S128"
target triple = "x86_64-pc-linux-gnu"

%"struct.jsonnet::internal::(anonymous namespace)::HeapEntity.base" = type <{ ptr, i8, i8 }>
%"class.std::vector.130" = type { %"struct.std::_Vector_base.131" }
%"struct.std::_Vector_base.131" = type { %"struct.std::_Vector_base<jsonnet::internal::(anonymous namespace)::HeapThunk *, std::allocator<jsonnet::internal::(anonymous namespace)::HeapThunk *>>::_Vector_impl" }
%"struct.std::_Vector_base<jsonnet::internal::(anonymous namespace)::HeapThunk *, std::allocator<jsonnet::internal::(anonymous namespace)::HeapThunk *>>::_Vector_impl" = type { %"struct.std::_Vector_base<jsonnet::internal::(anonymous namespace)::HeapThunk *, std::allocator<jsonnet::internal::(anonymous namespace)::HeapThunk *>>::_Vector_impl_data" }
%"struct.std::_Vector_base<jsonnet::internal::(anonymous namespace)::HeapThunk *, std::allocator<jsonnet::internal::(anonymous namespace)::HeapThunk *>>::_Vector_impl_data" = type { ptr, ptr, ptr }
%"struct.jsonnet::internal::(anonymous namespace)::HeapArray" = type { %"struct.jsonnet::internal::(anonymous namespace)::HeapEntity.base", %"class.std::vector.130" }

@_ZTVN7jsonnet8internal12_GLOBAL__N_19HeapArrayE = internal unnamed_addr constant { [4 x ptr] } { [4 x ptr] [ptr null, ptr @_ZTIN7jsonnet8internal12_GLOBAL__N_19HeapArrayE, ptr @_ZN7jsonnet8internal12_GLOBAL__N_19HeapArrayD2Ev, ptr @_ZN7jsonnet8internal12_GLOBAL__N_19HeapArrayD0Ev] }, align 8

; Function Attrs: mustprogress nounwind uwtable
define internal void @_ZNSt15__new_allocatorIPN7jsonnet8internal12_GLOBAL__N_19HeapThunkEE10deallocateEPS4_m(ptr noundef nonnull align 1 dereferenceable(1) %0, ptr noundef %1, i64 noundef %2) #5 align 2 {
  %4 = alloca ptr, align 8
  %5 = alloca ptr, align 8
  %6 = alloca i64, align 8
  store ptr %0, ptr %4, align 8, !tbaa !1035
  store ptr %1, ptr %5, align 8, !tbaa !915
  store i64 %2, ptr %6, align 8, !tbaa !271
  %7 = load ptr, ptr %5, align 8, !tbaa !915
  %8 = load i64, ptr %6, align 8, !tbaa !271
  %9 = mul i64 %8, 8
  call void @_ZdlPvm(ptr noundef %7, i64 noundef %9) #34
  ret void
}

; Function Attrs: mustprogress uwtable
define internal void @_ZNSt16allocator_traitsISaIPN7jsonnet8internal12_GLOBAL__N_19HeapThunkEEE10deallocateERS5_PS4_m(ptr noundef nonnull align 1 dereferenceable(1) %0, ptr noundef %1, i64 noundef %2) #4 align 2 {
  %4 = alloca ptr, align 8
  %5 = alloca ptr, align 8
  %6 = alloca i64, align 8
  store ptr %0, ptr %4, align 8, !tbaa !1037
  store ptr %1, ptr %5, align 8, !tbaa !915
  store i64 %2, ptr %6, align 8, !tbaa !271
  %7 = load ptr, ptr %4, align 8, !tbaa !1037
  %8 = load ptr, ptr %5, align 8, !tbaa !915
  %9 = load i64, ptr %6, align 8, !tbaa !271
  call void @_ZNSt15__new_allocatorIPN7jsonnet8internal12_GLOBAL__N_19HeapThunkEE10deallocateEPS4_m(ptr noundef nonnull align 1 dereferenceable(1) %7, ptr noundef %8, i64 noundef %9)
  ret void
}

; Function Attrs: mustprogress nounwind uwtable
define internal void @_ZNSt12_Destroy_auxILb1EE9__destroyIPPN7jsonnet8internal12_GLOBAL__N_19HeapThunkEEEvT_S8_(ptr noundef %0, ptr noundef %1) #5 align 2 {
  %3 = alloca ptr, align 8
  %4 = alloca ptr, align 8
  store ptr %0, ptr %3, align 8, !tbaa !915
  store ptr %1, ptr %4, align 8, !tbaa !915
  ret void
}

; Function Attrs: mustprogress nounwind uwtable
define internal void @_ZNSt15__new_allocatorIPN7jsonnet8internal12_GLOBAL__N_19HeapThunkEED2Ev(ptr noundef nonnull align 1 dereferenceable(1) %0) unnamed_addr #5 align 2 {
  %2 = alloca ptr, align 8
  store ptr %0, ptr %2, align 8, !tbaa !1035
  ret void
}

; Function Attrs: mustprogress uwtable
define internal void @_ZNSt12_Vector_baseIPN7jsonnet8internal12_GLOBAL__N_19HeapThunkESaIS4_EE13_M_deallocateEPS4_m(ptr noundef nonnull align 8 dereferenceable(24) %0, ptr noundef %1, i64 noundef %2) #4 align 2 {
  %4 = alloca ptr, align 8
  %5 = alloca ptr, align 8
  %6 = alloca i64, align 8
  store ptr %0, ptr %4, align 8, !tbaa !1029
  store ptr %1, ptr %5, align 8, !tbaa !915
  store i64 %2, ptr %6, align 8, !tbaa !271
  %7 = load ptr, ptr %4, align 8
  %8 = load ptr, ptr %5, align 8, !tbaa !915
  %9 = icmp ne ptr %8, null
  br i1 %9, label %10, label %14

10:                                               ; preds = %3
  %11 = getelementptr inbounds nuw %"struct.std::_Vector_base.131", ptr %7, i32 0, i32 0
  %12 = load ptr, ptr %5, align 8, !tbaa !915
  %13 = load i64, ptr %6, align 8, !tbaa !271
  call void @_ZNSt16allocator_traitsISaIPN7jsonnet8internal12_GLOBAL__N_19HeapThunkEEE10deallocateERS5_PS4_m(ptr noundef nonnull align 1 dereferenceable(1) %11, ptr noundef %12, i64 noundef %13)
  br label %14

14:                                               ; preds = %10, %3
  ret void
}

; Function Attrs: inlinehint mustprogress uwtable
define internal void @_ZSt8_DestroyIPPN7jsonnet8internal12_GLOBAL__N_19HeapThunkEEvT_S6_(ptr noundef %0, ptr noundef %1) #7 {
  %3 = alloca ptr, align 8
  %4 = alloca ptr, align 8
  store ptr %0, ptr %3, align 8, !tbaa !915
  store ptr %1, ptr %4, align 8, !tbaa !915
  %5 = load ptr, ptr %3, align 8, !tbaa !915
  %6 = load ptr, ptr %4, align 8, !tbaa !915
  call void @_ZNSt12_Destroy_auxILb1EE9__destroyIPPN7jsonnet8internal12_GLOBAL__N_19HeapThunkEEEvT_S8_(ptr noundef %5, ptr noundef %6)
  ret void
}

; Function Attrs: noinline noreturn nounwind uwtable
define linkonce_odr hidden void @__clang_call_terminate(ptr noundef %0) #9 comdat {
  %2 = call ptr @__cxa_begin_catch(ptr %0) #3
  call void @_ZSt9terminatev() #32
  unreachable
}

; Function Attrs: mustprogress nounwind uwtable
define internal void @_ZNSt12_Vector_baseIPN7jsonnet8internal12_GLOBAL__N_19HeapThunkESaIS4_EED2Ev(ptr noundef nonnull align 8 dereferenceable(24) %0) unnamed_addr #5 align 2 personality ptr @__gxx_personality_v0 {
  %2 = alloca ptr, align 8
  store ptr %0, ptr %2, align 8, !tbaa !1029
  %3 = load ptr, ptr %2, align 8
  %4 = getelementptr inbounds nuw %"struct.std::_Vector_base.131", ptr %3, i32 0, i32 0
  %5 = getelementptr inbounds nuw %"struct.std::_Vector_base<jsonnet::internal::(anonymous namespace)::HeapThunk *, std::allocator<jsonnet::internal::(anonymous namespace)::HeapThunk *>>::_Vector_impl_data", ptr %4, i32 0, i32 0
  %6 = load ptr, ptr %5, align 8, !tbaa !912
  %7 = getelementptr inbounds nuw %"struct.std::_Vector_base.131", ptr %3, i32 0, i32 0
  %8 = getelementptr inbounds nuw %"struct.std::_Vector_base<jsonnet::internal::(anonymous namespace)::HeapThunk *, std::allocator<jsonnet::internal::(anonymous namespace)::HeapThunk *>>::_Vector_impl_data", ptr %7, i32 0, i32 2
  %9 = load ptr, ptr %8, align 8, !tbaa !917
  %10 = getelementptr inbounds nuw %"struct.std::_Vector_base.131", ptr %3, i32 0, i32 0
  %11 = getelementptr inbounds nuw %"struct.std::_Vector_base<jsonnet::internal::(anonymous namespace)::HeapThunk *, std::allocator<jsonnet::internal::(anonymous namespace)::HeapThunk *>>::_Vector_impl_data", ptr %10, i32 0, i32 0
  %12 = load ptr, ptr %11, align 8, !tbaa !912
  %13 = ptrtoint ptr %9 to i64
  %14 = ptrtoint ptr %12 to i64
  %15 = sub i64 %13, %14
  %16 = sdiv exact i64 %15, 8
  invoke void @_ZNSt12_Vector_baseIPN7jsonnet8internal12_GLOBAL__N_19HeapThunkESaIS4_EE13_M_deallocateEPS4_m(ptr noundef nonnull align 8 dereferenceable(24) %3, ptr noundef %6, i64 noundef %16)
          to label %17 unwind label %19

17:                                               ; preds = %1
  %18 = getelementptr inbounds nuw %"struct.std::_Vector_base.131", ptr %3, i32 0, i32 0
  call void @_ZNSt15__new_allocatorIPN7jsonnet8internal12_GLOBAL__N_19HeapThunkEED2Ev(ptr noundef nonnull align 8 dereferenceable(24) %18) #3
  ret void

19:                                               ; preds = %1
  %20 = landingpad { ptr, i32 }
          catch ptr null
  %21 = extractvalue { ptr, i32 } %20, 0
  call void @__clang_call_terminate(ptr %21) #32
  unreachable
}

; Function Attrs: inlinehint mustprogress uwtable
define internal void @_ZSt8_DestroyIPPN7jsonnet8internal12_GLOBAL__N_19HeapThunkES4_EvT_S6_RSaIT0_E(ptr noundef %0, ptr noundef %1, ptr noundef nonnull align 1 dereferenceable(1) %2) #7 {
  %4 = alloca ptr, align 8
  %5 = alloca ptr, align 8
  %6 = alloca ptr, align 8
  store ptr %0, ptr %4, align 8, !tbaa !915
  store ptr %1, ptr %5, align 8, !tbaa !915
  store ptr %2, ptr %6, align 8, !tbaa !1037
  %7 = load ptr, ptr %4, align 8, !tbaa !915
  %8 = load ptr, ptr %5, align 8, !tbaa !915
  call void @_ZSt8_DestroyIPPN7jsonnet8internal12_GLOBAL__N_19HeapThunkEEvT_S6_(ptr noundef %7, ptr noundef %8)
  ret void
}

; Function Attrs: mustprogress nounwind uwtable
define internal noundef nonnull align 1 dereferenceable(1) ptr @_ZNSt12_Vector_baseIPN7jsonnet8internal12_GLOBAL__N_19HeapThunkESaIS4_EE19_M_get_Tp_allocatorEv(ptr noundef nonnull align 8 dereferenceable(24) %0) #5 align 2 {
  %2 = alloca ptr, align 8
  store ptr %0, ptr %2, align 8, !tbaa !1029
  %3 = load ptr, ptr %2, align 8
  %4 = getelementptr inbounds nuw %"struct.std::_Vector_base.131", ptr %3, i32 0, i32 0
  ret ptr %4
}

; Function Attrs: mustprogress nounwind uwtable
define internal void @_ZN7jsonnet8internal12_GLOBAL__N_110HeapEntityD2Ev(ptr noundef nonnull align 8 dereferenceable(10) %0) unnamed_addr #5 align 2 {
  %2 = alloca ptr, align 8
  store ptr %0, ptr %2, align 8, !tbaa !569
  ret void
}

; Function Attrs: mustprogress nounwind uwtable
define internal void @_ZNSt6vectorIPN7jsonnet8internal12_GLOBAL__N_19HeapThunkESaIS4_EED2Ev(ptr noundef nonnull align 8 dereferenceable(24) %0) unnamed_addr #5 align 2 personality ptr @__gxx_personality_v0 {
  %2 = alloca ptr, align 8
  store ptr %0, ptr %2, align 8, !tbaa !143
  %3 = load ptr, ptr %2, align 8
  %4 = getelementptr inbounds nuw %"struct.std::_Vector_base.131", ptr %3, i32 0, i32 0
  %5 = getelementptr inbounds nuw %"struct.std::_Vector_base<jsonnet::internal::(anonymous namespace)::HeapThunk *, std::allocator<jsonnet::internal::(anonymous namespace)::HeapThunk *>>::_Vector_impl_data", ptr %4, i32 0, i32 0
  %6 = load ptr, ptr %5, align 8, !tbaa !912
  %7 = getelementptr inbounds nuw %"struct.std::_Vector_base.131", ptr %3, i32 0, i32 0
  %8 = getelementptr inbounds nuw %"struct.std::_Vector_base<jsonnet::internal::(anonymous namespace)::HeapThunk *, std::allocator<jsonnet::internal::(anonymous namespace)::HeapThunk *>>::_Vector_impl_data", ptr %7, i32 0, i32 1
  %9 = load ptr, ptr %8, align 8, !tbaa !916
  %10 = call noundef nonnull align 1 dereferenceable(1) ptr @_ZNSt12_Vector_baseIPN7jsonnet8internal12_GLOBAL__N_19HeapThunkESaIS4_EE19_M_get_Tp_allocatorEv(ptr noundef nonnull align 8 dereferenceable(24) %3) #3
  invoke void @_ZSt8_DestroyIPPN7jsonnet8internal12_GLOBAL__N_19HeapThunkES4_EvT_S6_RSaIT0_E(ptr noundef %6, ptr noundef %9, ptr noundef nonnull align 1 dereferenceable(1) %10)
          to label %11 unwind label %12

11:                                               ; preds = %1
  call void @_ZNSt12_Vector_baseIPN7jsonnet8internal12_GLOBAL__N_19HeapThunkESaIS4_EED2Ev(ptr noundef nonnull align 8 dereferenceable(24) %3) #3
  ret void

12:                                               ; preds = %1
  %13 = landingpad { ptr, i32 }
          catch ptr null
  %14 = extractvalue { ptr, i32 } %13, 0
  call void @__clang_call_terminate(ptr %14) #32
  unreachable
}

; Function Attrs: inlinehint mustprogress nounwind uwtable
define internal void @_ZN7jsonnet8internal12_GLOBAL__N_19HeapArrayD2Ev(ptr noundef nonnull align 8 dereferenceable(40) %0) unnamed_addr #8 align 2 {
  %2 = alloca ptr, align 8
  store ptr %0, ptr %2, align 8, !tbaa !298
  %3 = load ptr, ptr %2, align 8
  store ptr getelementptr inbounds inrange(-16, 16) ({ [4 x ptr] }, ptr @_ZTVN7jsonnet8internal12_GLOBAL__N_19HeapArrayE, i32 0, i32 0, i32 2), ptr %3, align 8, !tbaa !310
  %4 = getelementptr inbounds nuw %"struct.jsonnet::internal::(anonymous namespace)::HeapArray", ptr %3, i32 0, i32 1
  call void @_ZNSt6vectorIPN7jsonnet8internal12_GLOBAL__N_19HeapThunkESaIS4_EED2Ev(ptr noundef nonnull align 8 dereferenceable(24) %4) #3
  call void @_ZN7jsonnet8internal12_GLOBAL__N_110HeapEntityD2Ev(ptr noundef nonnull align 8 dereferenceable(10) %3) #3
  ret void
}

; Function Attrs: inlinehint mustprogress nounwind uwtable
define internal void @_ZN7jsonnet8internal12_GLOBAL__N_19HeapArrayD0Ev(ptr noundef nonnull align 8 dereferenceable(40) %0) unnamed_addr #8 align 2 {
  %2 = alloca ptr, align 8
  store ptr %0, ptr %2, align 8, !tbaa !298
  %3 = load ptr, ptr %2, align 8
  call void @_ZN7jsonnet8internal12_GLOBAL__N_19HeapArrayD2Ev(ptr noundef nonnull align 8 dereferenceable(40) %3) #3
  call void @_ZdlPvm(ptr noundef %3, i64 noundef 40) #34
  ret void
}