; Function Attrs: inlinehint mustprogress nounwind uwtable
define internal void @_ZN7jsonnet8internal12_GLOBAL__N_19HeapArrayD0Ev(ptr noundef nonnull align 8 dereferenceable(40) initializes((0, 8)) %0) unnamed_addr #17 align 2 personality ptr @__gxx_personality_v0 {
  store ptr getelementptr inbounds nuw inrange(-16, 16) (i8, ptr @_ZTVN7jsonnet8internal12_GLOBAL__N_19HeapArrayE, i64 16), ptr %0, align 8, !tbaa !43
  %2 = getelementptr inbounds nuw i8, ptr %0, i64 16
  %.val.i = load ptr, ptr %2, align 8
  %.not.i.i.i.i = icmp eq ptr %.val.i, null
  br i1 %.not.i.i.i.i, label %_ZN7jsonnet8internal12_GLOBAL__N_19HeapArrayD2Ev.exit, label %3

3:                                                ; preds = %1
  %4 = getelementptr inbounds nuw i8, ptr %0, i64 32
  %.val1.i = load ptr, ptr %4, align 8
  %5 = ptrtoint ptr %.val1.i to i64
  %6 = ptrtoint ptr %.val.i to i64
  %7 = sub i64 %5, %6
  tail call void @_ZdlPvm(ptr noundef nonnull %.val.i, i64 noundef %7) #39
  br label %_ZN7jsonnet8internal12_GLOBAL__N_19HeapArrayD2Ev.exit

_ZN7jsonnet8internal12_GLOBAL__N_19HeapArrayD2Ev.exit: ; preds = %1, %3
  tail call void @_ZdlPvm(ptr noundef nonnull %0, i64 noundef 40) #39
  ret void
}